target datalayout = "e-m:e-p270:32:32-p271:32:32-p272:64:64-i64:64-i128:128-f80:128-n8:16:32:64-S128"
target triple = "x86_64-pc-linux-gnu"

%struct.lv_subject_t = type { %struct.lv_ll_t, %union.lv_subject_value_t, %union.lv_subject_value_t, ptr, i32 }
%struct.lv_ll_t = type { i32, ptr, ptr }
%union.lv_subject_value_t = type { ptr }
%struct._lv_observer_t = type { ptr, ptr, ptr, ptr, i8 }
%struct.flag_and_cond_t = type { i32, %union.lv_subject_value_t, i8 }

; Function Attrs: nounwind uwtable
define internal void @obj_flag_observer_cb(ptr noundef %0, ptr noundef %1) #0 {
  %3 = alloca ptr, align 8
  %4 = alloca ptr, align 8
  %5 = alloca ptr, align 8
  %6 = alloca i8, align 1
  store ptr %0, ptr %3, align 8, !tbaa !17
  store ptr %1, ptr %4, align 8, !tbaa !3
  call void @llvm.lifetime.start.p0(i64 8, ptr %5) #6
  %7 = load ptr, ptr %3, align 8, !tbaa !17
  %8 = getelementptr inbounds nuw %struct._lv_observer_t, ptr %7, i32 0, i32 3
  %9 = load ptr, ptr %8, align 8, !tbaa !19
  store ptr %9, ptr %5, align 8, !tbaa !3
  call void @llvm.lifetime.start.p0(i64 1, ptr %6) #6
  store i8 0, ptr %6, align 1, !tbaa !45
  %10 = load ptr, ptr %5, align 8, !tbaa !3
  %11 = getelementptr inbounds nuw %struct.flag_and_cond_t, ptr %10, i32 0, i32 2
  %12 = load i8, ptr %11, align 8
  %13 = lshr i8 %12, 1
  %14 = and i8 %13, 7
  %15 = zext i8 %14 to i32
  switch i32 %15, label %43 [
    i32 0, label %16
    i32 1, label %25
    i32 2, label %34
  ]

16:                                               ; preds = %2
  %17 = load ptr, ptr %4, align 8, !tbaa !3
  %18 = getelementptr inbounds nuw %struct.lv_subject_t, ptr %17, i32 0, i32 1
  %19 = load i32, ptr %18, align 8, !tbaa !9
  %20 = load ptr, ptr %5, align 8, !tbaa !3
  %21 = getelementptr inbounds nuw %struct.flag_and_cond_t, ptr %20, i32 0, i32 1
  %22 = load i32, ptr %21, align 8, !tbaa !9
  %23 = icmp eq i32 %19, %22
  %24 = zext i1 %23 to i8
  store i8 %24, ptr %6, align 1, !tbaa !45
  br label %43

25:                                               ; preds = %2
  %26 = load ptr, ptr %4, align 8, !tbaa !3
  %27 = getelementptr inbounds nuw %struct.lv_subject_t, ptr %26, i32 0, i32 1
  %28 = load i32, ptr %27, align 8, !tbaa !9
  %29 = load ptr, ptr %5, align 8, !tbaa !3
  %30 = getelementptr inbounds nuw %struct.flag_and_cond_t, ptr %29, i32 0, i32 1
  %31 = load i32, ptr %30, align 8, !tbaa !9
  %32 = icmp sgt i32 %28, %31
  %33 = zext i1 %32 to i8
  store i8 %33, ptr %6, align 1, !tbaa !45
  br label %43

34:                                               ; preds = %2
  %35 = load ptr, ptr %4, align 8, !tbaa !3
  %36 = getelementptr inbounds nuw %struct.lv_subject_t, ptr %35, i32 0, i32 1
  %37 = load i32, ptr %36, align 8, !tbaa !9
  %38 = load ptr, ptr %5, align 8, !tbaa !3
  %39 = getelementptr inbounds nuw %struct.flag_and_cond_t, ptr %38, i32 0, i32 1
  %40 = load i32, ptr %39, align 8, !tbaa !9
  %41 = icmp sge i32 %37, %40
  %42 = zext i1 %41 to i8
  store i8 %42, ptr %6, align 1, !tbaa !45
  br label %43

43:                                               ; preds = %2, %34, %25, %16
  %44 = load ptr, ptr %5, align 8, !tbaa !3
  %45 = getelementptr inbounds nuw %struct.flag_and_cond_t, ptr %44, i32 0, i32 2
  %46 = load i8, ptr %45, align 8
  %47 = and i8 %46, 1
  %48 = zext i8 %47 to i32
  %49 = icmp ne i32 %48, 0
  br i1 %49, label %50, label %55

50:                                               ; preds = %43
  %51 = load i8, ptr %6, align 1, !tbaa !45, !range !49, !noundef !50
  %52 = trunc i8 %51 to i1
  %53 = xor i1 %52, true
  %54 = zext i1 %53 to i8
  store i8 %54, ptr %6, align 1, !tbaa !45
  br label %55

55:                                               ; preds = %50, %43
  %56 = load i8, ptr %6, align 1, !tbaa !45, !range !49, !noundef !50
  %57 = trunc i8 %56 to i1
  br i1 %57, label %58, label %65

58:                                               ; preds = %55
  %59 = load ptr, ptr %3, align 8, !tbaa !17
  %60 = getelementptr inbounds nuw %struct._lv_observer_t, ptr %59, i32 0, i32 2
  %61 = load ptr, ptr %60, align 8, !tbaa !21
  %62 = load ptr, ptr %5, align 8, !tbaa !3
  %63 = getelementptr inbounds nuw %struct.flag_and_cond_t, ptr %62, i32 0, i32 0
  %64 = load i32, ptr %63, align 8, !tbaa !47
  call void @lv_obj_add_flag(ptr noundef %61, i32 noundef %64)
  br label %72

65:                                               ; preds = %55
  %66 = load ptr, ptr %3, align 8, !tbaa !17
  %67 = getelementptr inbounds nuw %struct._lv_observer_t, ptr %66, i32 0, i32 2
  %68 = load ptr, ptr %67, align 8, !tbaa !21
  %69 = load ptr, ptr %5, align 8, !tbaa !3
  %70 = getelementptr inbounds nuw %struct.flag_and_cond_t, ptr %69, i32 0, i32 0
  %71 = load i32, ptr %70, align 8, !tbaa !47
  call void @lv_obj_remove_flag(ptr noundef %68, i32 noundef %71)
  br label %72

72:                                               ; preds = %65, %58
  call void @llvm.lifetime.end.p0(i64 1, ptr %6) #6
  call void @llvm.lifetime.end.p0(i64 8, ptr %5) #6
  ret void
}