; Function Attrs: nounwind uwtable
define internal void @obj_flag_observer_cb(ptr noundef readonly captures(none) %0, ptr noundef readonly captures(none) %1) #0 {
  %3 = getelementptr inbounds nuw i8, ptr %0, i64 24
  %4 = load ptr, ptr %3, align 8, !tbaa !13
  %5 = getelementptr inbounds nuw i8, ptr %4, i64 16
  %6 = load i8, ptr %5, align 8
  %7 = lshr i8 %6, 1
  %8 = and i8 %7, 7
  switch i8 %8, label %._crit_edge [
    i8 0, label %10
    i8 1, label %16
    i8 2, label %22
  ]

._crit_edge:                                      ; preds = %2
  %9 = trunc i8 %6 to i1
  br i1 %9, label %30, label %34

10:                                               ; preds = %2
  %11 = getelementptr inbounds nuw i8, ptr %1, i64 24
  %12 = load i32, ptr %11, align 8, !tbaa !3
  %13 = getelementptr inbounds nuw i8, ptr %4, i64 8
  %14 = load i32, ptr %13, align 8, !tbaa !3
  %15 = icmp eq i32 %12, %14
  br label %28

16:                                               ; preds = %2
  %17 = getelementptr inbounds nuw i8, ptr %1, i64 24
  %18 = load i32, ptr %17, align 8, !tbaa !3
  %19 = getelementptr inbounds nuw i8, ptr %4, i64 8
  %20 = load i32, ptr %19, align 8, !tbaa !3
  %21 = icmp sgt i32 %18, %20
  br label %28

22:                                               ; preds = %2
  %23 = getelementptr inbounds nuw i8, ptr %1, i64 24
  %24 = load i32, ptr %23, align 8, !tbaa !3
  %25 = getelementptr inbounds nuw i8, ptr %4, i64 8
  %26 = load i32, ptr %25, align 8, !tbaa !3
  %27 = icmp sge i32 %24, %26
  br label %28

28:                                               ; preds = %22, %16, %10
  %.0.shrunk = phi i1 [ %27, %22 ], [ %21, %16 ], [ %15, %10 ]
  %29 = trunc i8 %6 to i1
  %spec.select = xor i1 %.0.shrunk, %29
  br i1 %spec.select, label %30, label %34

30:                                               ; preds = %._crit_edge, %28
  %31 = getelementptr inbounds nuw i8, ptr %0, i64 16
  %32 = load ptr, ptr %31, align 8, !tbaa !14
  %33 = load i32, ptr %4, align 8, !tbaa !33
  tail call void @lv_obj_add_flag(ptr noundef %32, i32 noundef %33) #9
  br label %38

34:                                               ; preds = %._crit_edge, %28
  %35 = getelementptr inbounds nuw i8, ptr %0, i64 16
  %36 = load ptr, ptr %35, align 8, !tbaa !14
  %37 = load i32, ptr %4, align 8, !tbaa !33
  tail call void @lv_obj_remove_flag(ptr noundef %36, i32 noundef %37) #9
  br label %38

38:                                               ; preds = %34, %30
  ret void
}